Certificate:
    Data:
        Version: 1 (0x0)
        Serial Number: 1 (0x1)
        Signature Algorithm: md5WithRSAEncryption
        Issuer: C=CH, ST=TI, L=CHIASSO, O=technojuice, OU=Linux Team, CN=guido@technojuice.org
        Validity
            Not Before: May 22 21:33:05 2004 GMT
            Not After : May 22 21:33:05 2005 GMT
        Subject: C=CH, ST=TI, L=CHIASSO, O=technojuice, OU=Linux Team, CN=Lan Man/emailAddress=postmaster@technojuice.org
        Subject Public Key Info:
            Public Key Algorithm: rsaEncryption
            RSA Public Key: (1024 bit)
                Modulus (1024 bit):
                    00:a2:e1:1d:ff:75:ec:d8:91:36:7c:09:ba:fd:64:
                    b8:d9:ae:ab:64:64:46:a0:d8:f9:32:0a:e5:6a:1d:
                    65:0f:91:f2:44:3c:67:9f:9d:15:e9:43:70:41:2b:
                    03:56:17:ee:d7:eb:47:f7:b7:74:51:da:71:bf:bc:
                    16:19:5f:4c:40:c7:3f:05:08:74:83:e9:4a:97:b5:
                    b3:73:86:df:ff:0c:36:77:0c:13:3f:e7:37:48:6a:
                    f4:83:8d:6e:24:11:30:42:e4:cf:6a:01:f1:e1:b2:
                    f7:22:2e:51:60:e3:33:fd:74:ee:cd:85:68:be:a3:
                    0e:ac:1a:5a:ee:3e:1a:70:d5
                Exponent: 65537 (0x10001)
    Signature Algorithm: md5WithRSAEncryption
        38:48:b5:25:01:e8:cd:0c:bf:ac:ec:36:fa:da:81:91:42:23:
        7a:49:9f:93:c9:25:ab:ce:d5:2c:41:0a:d8:af:5a:b9:d7:62:
        ab:af:9d:95:bf:ab:58:d0:77:99:f7:4c:e3:b0:dc:e1:2a:49:
        07:f7:5d:f7:88:77:cf:5e:00:3c:19:2f:63:c4:83:11:c6:f8:
        a7:cc:7a:74:18:24:08:ec:34:f2:0e:f1:94:ee:b7:70:1b:c4:
        51:57:4c:fd:1f:5d:d9:0d:66:de:fc:ac:84:71:ec:0f:96:8a:
        93:0a:fd:a6:df:36:a1:c8:80:bc:a1:9c:9c:40:c0:f0:0a:04:
        e5:6c
-----BEGIN CERTIFICATE-----
MIICezCCAeQCAQEwDQYJKoZIhvcNAQEEBQAwdzELMAkGA1UEBhMCQ0gxCzAJBgNV
BAgTAlRJMRAwDgYDVQQHEwdDSElBU1NPMRQwEgYDVQQKEwt0ZWNobm9qdWljZTET
MBEGA1UECxMKTGludXggVGVhbTEeMBwGA1UEAxQVZ3VpZG9AdGVjaG5vanVpY2Uu
b3JnMB4XDTA0MDUyMjIxMzMwNVoXDTA1MDUyMjIxMzMwNVowgZQxCzAJBgNVBAYT
AkNIMQswCQYDVQQIEwJUSTEQMA4GA1UEBxMHQ0hJQVNTTzEUMBIGA1UEChMLdGVj
aG5vanVpY2UxEzARBgNVBAsTCkxpbnV4IFRlYW0xEDAOBgNVBAMTB0xhbiBNYW4x
KTAnBgkqhkiG9w0BCQEWGnBvc3RtYXN0ZXJAdGVjaG5vanVpY2Uub3JnMIGfMA0G
CSqGSIb3DQEBAQUAA4GNADCBiQKBgQCi4R3/dezYkTZ8Cbr9ZLjZrqtkZEag2Pky
CuVqHWUPkfJEPGefnRXpQ3BBKwNWF+7X60f3t3RR2nG/vBYZX0xAxz8FCHSD6UqX
tbNzht//DDZ3DBM/5zdIavSDjW4kETBC5M9qAfHhsvciLlFg4zP9dO7NhWi+ow6s
GlruPhpw1QIDAQABMA0GCSqGSIb3DQEBBAUAA4GBADhItSUB6M0Mv6zsNvragZFC
I3pJn5PJJavO1SxBCtivWrnXYquvnZW/q1jQd5n3TOOw3OEqSQf3XfeId89eADwZ
L2PEgxHG+KfMenQYJAjsNPIO8ZTut3AbxFFXTP0fXdkNZt78rIRx7A+WipMK/abf
NqHIgLyhnJxAwPAKBOVs
-----END CERTIFICATE-----
